target datalayout = "e-m:e-p270:32:32-p271:32:32-p272:64:64-i64:64-i128:128-f80:128-n8:16:32:64-S128"
target triple = "x86_64-pc-linux-gnu"

%class.PhaseRegAlloc = type { ptr, %class.Phase, ptr, i32, %class.VectorSet, ptr, i32, i32, ptr }
%class.Phase = type { i32, ptr }
%class.VectorSet = type { i32, ptr, i32, ptr }

@_ZN13PhaseRegAlloc17_alloc_statisticsE = hidden global [10 x ptr] zeroinitializer, align 16
@_ZN13PhaseRegAlloc15_num_allocatorsE = hidden global i32 0, align 4
@_ZTV13PhaseRegAlloc = linkonce_odr hidden unnamed_addr constant { [4 x ptr] } { [4 x ptr] [ptr null, ptr null, ptr @__cxa_pure_virtual, ptr @__cxa_pure_virtual] }, comdat, align 8

; Function Attrs: mustprogress nounwind uwtable
define hidden void @_ZN13PhaseRegAllocC2EjR8PhaseCFGR7MatcherPFvvE(ptr noundef nonnull align 8 dereferenceable(96) %0, i32 noundef %1, ptr noundef nonnull align 8 dereferenceable(160) %2, ptr noundef nonnull align 8 dereferenceable(1008) %3, ptr noundef %4) unnamed_addr #1 align 2 {
  %6 = alloca ptr, align 8
  %7 = alloca i32, align 4
  %8 = alloca ptr, align 8
  %9 = alloca ptr, align 8
  %10 = alloca ptr, align 8
  %11 = alloca i32, align 4
  store ptr %0, ptr %6, align 8
  store i32 %1, ptr %7, align 4
  store ptr %2, ptr %8, align 8
  store ptr %3, ptr %9, align 8
  store ptr %4, ptr %10, align 8
  %12 = load ptr, ptr %6, align 8
  %13 = getelementptr inbounds i8, ptr %12, i64 8
  call void @_ZN5PhaseC2ENS_11PhaseNumberE(ptr noundef nonnull align 8 dereferenceable(16) %13, i32 noundef 9)
  store ptr getelementptr inbounds inrange(-16, 16) ({ [4 x ptr] }, ptr @_ZTV13PhaseRegAlloc, i32 0, i32 0, i32 2), ptr %12, align 8
  %14 = getelementptr inbounds %class.PhaseRegAlloc, ptr %12, i32 0, i32 2
  store ptr null, ptr %14, align 8
  %15 = getelementptr inbounds %class.PhaseRegAlloc, ptr %12, i32 0, i32 3
  store i32 0, ptr %15, align 8
  %16 = getelementptr inbounds %class.PhaseRegAlloc, ptr %12, i32 0, i32 4
  call void @_ZN9VectorSetC1Ev(ptr noundef nonnull align 8 dereferenceable(32) %16)
  %17 = getelementptr inbounds %class.PhaseRegAlloc, ptr %12, i32 0, i32 5
  %18 = load ptr, ptr %8, align 8
  store ptr %18, ptr %17, align 8
  %19 = getelementptr inbounds %class.PhaseRegAlloc, ptr %12, i32 0, i32 6
  store i32 -559038737, ptr %19, align 8
  %20 = getelementptr inbounds %class.PhaseRegAlloc, ptr %12, i32 0, i32 8
  %21 = load ptr, ptr %9, align 8
  store ptr %21, ptr %20, align 8
  store i32 0, ptr %11, align 4
  br label %22

22:                                               ; preds = %35, %5
  %23 = load i32, ptr %11, align 4
  %24 = load i32, ptr @_ZN13PhaseRegAlloc15_num_allocatorsE, align 4
  %25 = icmp slt i32 %23, %24
  br i1 %25, label %26, label %38

26:                                               ; preds = %22
  %27 = load i32, ptr %11, align 4
  %28 = sext i32 %27 to i64
  %29 = getelementptr inbounds [10 x ptr], ptr @_ZN13PhaseRegAlloc17_alloc_statisticsE, i64 0, i64 %28
  %30 = load ptr, ptr %29, align 8
  %31 = load ptr, ptr %10, align 8
  %32 = icmp eq ptr %30, %31
  br i1 %32, label %33, label %34

33:                                               ; preds = %26
  br label %44

34:                                               ; preds = %26
  br label %35

35:                                               ; preds = %34
  %36 = load i32, ptr %11, align 4
  %37 = add nsw i32 %36, 1
  store i32 %37, ptr %11, align 4
  br label %22, !llvm.loop !6

38:                                               ; preds = %22
  %39 = load ptr, ptr %10, align 8
  %40 = load i32, ptr @_ZN13PhaseRegAlloc15_num_allocatorsE, align 4
  %41 = add nsw i32 %40, 1
  store i32 %41, ptr @_ZN13PhaseRegAlloc15_num_allocatorsE, align 4
  %42 = sext i32 %40 to i64
  %43 = getelementptr inbounds [10 x ptr], ptr @_ZN13PhaseRegAlloc17_alloc_statisticsE, i64 0, i64 %42
  store ptr %39, ptr %43, align 8
  br label %44

44:                                               ; preds = %38, %33
  ret void
}