; Function Attrs: mustprogress nounwind uwtable
define hidden void @_ZN13PhaseRegAllocC2EjR8PhaseCFGR7MatcherPFvvE(ptr noundef nonnull align 8 dereferenceable(96) %0, i32 noundef %1, ptr noundef nonnull align 8 dereferenceable(160) %2, ptr noundef nonnull align 8 dereferenceable(1008) %3, ptr noundef %4) unnamed_addr #0 align 2 {
  %6 = getelementptr inbounds i8, ptr %0, i64 8
  tail call void @_ZN5PhaseC2ENS_11PhaseNumberE(ptr noundef nonnull align 8 dereferenceable(16) %6, i32 noundef 9) #3
  store ptr getelementptr inbounds inrange(-16, 16) (i8, ptr @_ZTV13PhaseRegAlloc, i64 16), ptr %0, align 8
  %7 = getelementptr inbounds i8, ptr %0, i64 24
  store ptr null, ptr %7, align 8
  %8 = getelementptr inbounds i8, ptr %0, i64 32
  store i32 0, ptr %8, align 8
  %9 = getelementptr inbounds i8, ptr %0, i64 40
  tail call void @_ZN9VectorSetC1Ev(ptr noundef nonnull align 8 dereferenceable(32) %9) #3
  %10 = getelementptr inbounds i8, ptr %0, i64 72
  store ptr %2, ptr %10, align 8
  %11 = getelementptr inbounds i8, ptr %0, i64 80
  store i32 -559038737, ptr %11, align 8
  %12 = getelementptr inbounds i8, ptr %0, i64 88
  store ptr %3, ptr %12, align 8
  %13 = load i32, ptr @_ZN13PhaseRegAlloc15_num_allocatorsE, align 4
  %14 = icmp sgt i32 %13, 0
  br i1 %14, label %.lr.ph.preheader, label %._crit_edge

.lr.ph.preheader:                                 ; preds = %5
  %wide.trip.count = zext nneg i32 %13 to i64
  br label %.lr.ph

15:                                               ; preds = %.lr.ph
  %indvars.iv.next = add nuw nsw i64 %indvars.iv, 1
  %exitcond.not = icmp eq i64 %indvars.iv.next, %wide.trip.count
  br i1 %exitcond.not, label %._crit_edge, label %.lr.ph, !llvm.loop !6

.lr.ph:                                           ; preds = %.lr.ph.preheader, %15
  %indvars.iv = phi i64 [ 0, %.lr.ph.preheader ], [ %indvars.iv.next, %15 ]
  %16 = getelementptr inbounds [10 x ptr], ptr @_ZN13PhaseRegAlloc17_alloc_statisticsE, i64 0, i64 %indvars.iv
  %17 = load ptr, ptr %16, align 8
  %18 = icmp eq ptr %17, %4
  br i1 %18, label %.loopexit, label %15

._crit_edge:                                      ; preds = %15, %5
  %19 = add nsw i32 %13, 1
  store i32 %19, ptr @_ZN13PhaseRegAlloc15_num_allocatorsE, align 4
  %20 = sext i32 %13 to i64
  %21 = getelementptr inbounds [10 x ptr], ptr @_ZN13PhaseRegAlloc17_alloc_statisticsE, i64 0, i64 %20
  store ptr %4, ptr %21, align 8
  br label %.loopexit

.loopexit:                                        ; preds = %.lr.ph, %._crit_edge
  ret void
}